	.file	"m-contaN.c"
	.text
	.globl	contaN
	.type	contaN, @function
contaN:
.LFB6:
	.cfi_startproc
	endbr64
	pushq	%rbp
	.cfi_def_cfa_offset 16
	.cfi_offset 6, -16
	movq	%rsp, %rbp
	.cfi_def_cfa_register 6
	movq	%rdi, -24(%rbp)
	movl	%esi, -28(%rbp)
	movl	$0, -8(%rbp)
	movl	-28(%rbp), %eax
	movl	%eax, -4(%rbp)
	jmp	.L2
.L4:
	movl	-4(%rbp), %eax
	movslq	%eax, %rdx
	movq	-24(%rbp), %rax
	addq	%rdx, %rax
	movzbl	(%rax), %eax
	cmpb	$47, %al
	jle	.L3
	movl	-4(%rbp), %eax
	movslq	%eax, %rdx
	movq	-24(%rbp), %rax
	addq	%rdx, %rax
	movzbl	(%rax), %eax
	movsbl	%al, %eax
	subl	$48, %eax
	addl	%eax, -8(%rbp)
.L3:
	addl	$1, -4(%rbp)
.L2:
	movl	-4(%rbp), %eax
	movslq	%eax, %rdx
	movq	-24(%rbp), %rax
	addq	%rdx, %rax
	movzbl	(%rax), %eax
	testb	%al, %al
	jne	.L4
	movl	-8(%rbp), %eax
	popq	%rbp
	.cfi_def_cfa 7, 8
	ret
	.cfi_endproc
.LFE6:
	.size	contaN, .-contaN
	.section	.rodata
	.align 8
.LC0:
	.string	"Introduza a cadeia de carateres -->"
.LC1:
	.string	"%s"
	.align 8
.LC2:
	.string	"Indique a posicao inicial na cadeia de carateres -->"
.LC3:
	.string	"%d"
	.align 8
.LC4:
	.string	"O somatorio dos digitos na cadeia e' --> %d\n"
	.text
	.globl	main
	.type	main, @function
main:
.LFB7:
	.cfi_startproc
	endbr64
	pushq	%rbp
	.cfi_def_cfa_offset 16
	.cfi_offset 6, -16
	movq	%rsp, %rbp
	.cfi_def_cfa_register 6
	subq	$80, %rsp
	movq	%fs:40, %rax
	movq	%rax, -8(%rbp)
	xorl	%eax, %eax
	leaq	.LC0(%rip), %rax
	movq	%rax, %rdi
	call	puts@PLT
	leaq	-64(%rbp), %rax
	movq	%rax, %rsi
	leaq	.LC1(%rip), %rax
	movq	%rax, %rdi
	movl	$0, %eax
	call	__isoc99_scanf@PLT
	leaq	.LC2(%rip), %rax
	movq	%rax, %rdi
	call	puts@PLT
	leaq	-68(%rbp), %rax
	movq	%rax, %rsi
	leaq	.LC3(%rip), %rax
	movq	%rax, %rdi
	movl	$0, %eax
	call	__isoc99_scanf@PLT
	movl	-68(%rbp), %edx
	leaq	-64(%rbp), %rax
	movl	%edx, %esi
	movq	%rax, %rdi
	call	contaN
	movl	%eax, %esi
	leaq	.LC4(%rip), %rax
	movq	%rax, %rdi
	movl	$0, %eax
	call	printf@PLT
	movl	$0, %edi
	call	exit@PLT
	.cfi_endproc
.LFE7:
	.size	main, .-main
	.ident	"GCC: (Ubuntu 11.3.0-1ubuntu1~22.04) 11.3.0"
	.section	.note.GNU-stack,"",@progbits
	.section	.note.gnu.property,"a"
	.align 8
	.long	1f - 0f
	.long	4f - 1f
	.long	5
0:
	.string	"GNU"
1:
	.align 8
	.long	0xc0000002
	.long	3f - 2f
2:
	.long	0x3
3:
	.align 8
4:
